target datalayout = "e-m:e-p270:32:32-p271:32:32-p272:64:64-i64:64-i128:128-f80:128-n8:16:32:64-S128"
target triple = "x86_64-pc-linux-gnu"

%struct.archive_read_filter_vtable = type { ptr, ptr, ptr }
%struct.archive_read_filter = type { i64, ptr, ptr, ptr, ptr, ptr, ptr, i32, i32, i32, ptr, i64, ptr, i64, ptr, i64, ptr, i64, i8, i8, i8 }
%struct.archive_read = type { %struct.archive, ptr, i32, i64, i64, %struct.archive_read_client, [16 x %struct.archive_read_filter_bidder], ptr, i32, i64, i32, i32, [16 x %struct.archive_format_descriptor], ptr, ptr, ptr, %struct.anon }
%struct.archive = type { i32, i32, ptr, i32, ptr, i32, i32, ptr, %struct.archive_string, ptr, i32, i32, ptr, ptr, i64, i64, i64, i8, i64 }
%struct.archive_string = type { ptr, i64, i64 }
%struct.archive_read_client = type { ptr, ptr, ptr, ptr, ptr, ptr, i32, i32, i64, ptr }
%struct.archive_read_filter_bidder = type { ptr, ptr, ptr }
%struct.archive_format_descriptor = type { ptr, ptr, ptr, ptr, ptr, ptr, ptr, ptr, ptr, ptr, ptr }
%struct.anon = type { ptr, ptr, i32, ptr, ptr }
%struct.private_data = type { %struct.z_stream_s, i8, ptr, i64, i64, i64, i32, ptr, i8 }
%struct.z_stream_s = type { ptr, i32, i64, ptr, i32, i64, ptr, ptr, ptr, ptr, ptr, i32, i64, i64 }

@.str = private unnamed_addr constant [5 x i8] c"gzip\00", align 1
@.str.2 = private unnamed_addr constant [43 x i8] c"Can't allocate data for gzip decompression\00", align 1
@gzip_reader_vtable = internal constant %struct.archive_read_filter_vtable { ptr @gzip_filter_read, ptr @gzip_filter_close, ptr @gzip_read_header }, align 8

; Function Attrs: nounwind uwtable
define internal i32 @gzip_bidder_init(ptr noundef %0) #0 {
  %2 = alloca i32, align 4
  %3 = alloca ptr, align 8
  %4 = alloca ptr, align 8
  %5 = alloca ptr, align 8
  %6 = alloca i32, align 4
  store ptr %0, ptr %3, align 8, !tbaa !13
  call void @llvm.lifetime.start.p0(i64 8, ptr %4) #8
  call void @llvm.lifetime.start.p0(i64 8, ptr %5) #8
  %7 = load ptr, ptr %3, align 8, !tbaa !13
  %8 = getelementptr inbounds nuw %struct.archive_read_filter, ptr %7, i32 0, i32 7
  store i32 1, ptr %8, align 8, !tbaa !17
  %9 = load ptr, ptr %3, align 8, !tbaa !13
  %10 = getelementptr inbounds nuw %struct.archive_read_filter, ptr %9, i32 0, i32 6
  store ptr @.str, ptr %10, align 8, !tbaa !22
  %11 = call noalias ptr @calloc(i64 noundef 1, i64 noundef 176) #9
  store ptr %11, ptr %4, align 8, !tbaa !23
  %12 = call noalias ptr @malloc(i64 noundef 65536) #10
  store ptr %12, ptr %5, align 8, !tbaa !25
  %13 = load ptr, ptr %4, align 8, !tbaa !23
  %14 = icmp eq ptr %13, null
  br i1 %14, label %18, label %15

15:                                               ; preds = %1
  %16 = load ptr, ptr %5, align 8, !tbaa !25
  %17 = icmp eq ptr %16, null
  br i1 %17, label %18, label %25

18:                                               ; preds = %15, %1
  %19 = load ptr, ptr %5, align 8, !tbaa !25
  call void @free(ptr noundef %19) #8
  %20 = load ptr, ptr %4, align 8, !tbaa !23
  call void @free(ptr noundef %20) #8
  %21 = load ptr, ptr %3, align 8, !tbaa !13
  %22 = getelementptr inbounds nuw %struct.archive_read_filter, ptr %21, i32 0, i32 3
  %23 = load ptr, ptr %22, align 8, !tbaa !26
  %24 = getelementptr inbounds nuw %struct.archive_read, ptr %23, i32 0, i32 0
  call void (ptr, i32, ptr, ...) @archive_set_error(ptr noundef %24, i32 noundef 12, ptr noundef @.str.2)
  store i32 -30, ptr %2, align 4
  store i32 1, ptr %6, align 4
  br label %38

25:                                               ; preds = %15
  %26 = load ptr, ptr %4, align 8, !tbaa !23
  %27 = load ptr, ptr %3, align 8, !tbaa !13
  %28 = getelementptr inbounds nuw %struct.archive_read_filter, ptr %27, i32 0, i32 5
  store ptr %26, ptr %28, align 8, !tbaa !27
  %29 = load ptr, ptr %4, align 8, !tbaa !23
  %30 = getelementptr inbounds nuw %struct.private_data, ptr %29, i32 0, i32 3
  store i64 65536, ptr %30, align 8, !tbaa !28
  %31 = load ptr, ptr %5, align 8, !tbaa !25
  %32 = load ptr, ptr %4, align 8, !tbaa !23
  %33 = getelementptr inbounds nuw %struct.private_data, ptr %32, i32 0, i32 2
  store ptr %31, ptr %33, align 8, !tbaa !32
  %34 = load ptr, ptr %3, align 8, !tbaa !13
  %35 = getelementptr inbounds nuw %struct.archive_read_filter, ptr %34, i32 0, i32 4
  store ptr @gzip_reader_vtable, ptr %35, align 8, !tbaa !33
  %36 = load ptr, ptr %4, align 8, !tbaa !23
  %37 = getelementptr inbounds nuw %struct.private_data, ptr %36, i32 0, i32 1
  store i8 0, ptr %37, align 8, !tbaa !34
  store i32 0, ptr %2, align 4
  store i32 1, ptr %6, align 4
  br label %38

38:                                               ; preds = %25, %18
  call void @llvm.lifetime.end.p0(i64 8, ptr %5) #8
  call void @llvm.lifetime.end.p0(i64 8, ptr %4) #8
  %39 = load i32, ptr %2, align 4
  ret i32 %39
}