; Function Attrs: nounwind uwtable
define internal range(i32 -30, 1) i32 @gzip_bidder_init(ptr noundef captures(none) initializes((48, 60)) %0) #0 {
  %2 = getelementptr inbounds nuw i8, ptr %0, i64 56
  store i32 1, ptr %2, align 8, !tbaa !4
  %3 = getelementptr inbounds nuw i8, ptr %0, i64 48
  store ptr @.str, ptr %3, align 8, !tbaa !16
  %4 = tail call noalias dereferenceable_or_null(176) ptr @calloc(i64 noundef 1, i64 noundef 176) #9
  %5 = tail call noalias dereferenceable_or_null(65536) ptr @malloc(i64 noundef 65536) #10
  %6 = icmp eq ptr %4, null
  %7 = icmp eq ptr %5, null
  %or.cond = or i1 %6, %7
  br i1 %or.cond, label %8, label %11

8:                                                ; preds = %1
  tail call void @free(ptr noundef %5) #8
  tail call void @free(ptr noundef %4) #8
  %9 = getelementptr inbounds nuw i8, ptr %0, i64 24
  %10 = load ptr, ptr %9, align 8, !tbaa !17
  tail call void (ptr, i32, ptr, ...) @archive_set_error(ptr noundef %10, i32 noundef 12, ptr noundef nonnull @.str.2) #8
  br label %16

11:                                               ; preds = %1
  %12 = getelementptr inbounds nuw i8, ptr %0, i64 40
  store ptr %4, ptr %12, align 8, !tbaa !18
  %13 = getelementptr inbounds nuw i8, ptr %4, i64 128
  store i64 65536, ptr %13, align 8, !tbaa !19
  %14 = getelementptr inbounds nuw i8, ptr %4, i64 120
  store ptr %5, ptr %14, align 8, !tbaa !23
  %15 = getelementptr inbounds nuw i8, ptr %0, i64 32
  store ptr @gzip_reader_vtable, ptr %15, align 8, !tbaa !24
  br label %16

16:                                               ; preds = %11, %8
  %.0 = phi i32 [ -30, %8 ], [ 0, %11 ]
  ret i32 %.0
}